target datalayout = "e-m:e-p270:32:32-p271:32:32-p272:64:64-i64:64-i128:128-f80:128-n8:16:32:64-S128"
target triple = "x86_64-pc-linux-gnu"

%struct.IncrementalSortGroupInfo = type { i64, i64, i64, i64, i64, i32 }
%struct.TuplesortInstrumentation = type { i32, i32, i64 }

; Function Attrs: nounwind uwtable
define internal void @instrumentSortedGroup(ptr noundef %0, ptr noundef %1) #0 {
  %3 = alloca ptr, align 8
  %4 = alloca ptr, align 8
  %5 = alloca %struct.TuplesortInstrumentation, align 8
  store ptr %0, ptr %3, align 8
  store ptr %1, ptr %4, align 8
  call void @llvm.lifetime.start.p0(i64 16, ptr %5) #8
  %6 = load ptr, ptr %3, align 8
  %7 = getelementptr inbounds nuw %struct.IncrementalSortGroupInfo, ptr %6, i32 0, i32 0
  %8 = load i64, ptr %7, align 8
  %9 = add i64 %8, 1
  store i64 %9, ptr %7, align 8
  %10 = load ptr, ptr %4, align 8
  call void @tuplesort_get_stats(ptr noundef %10, ptr noundef %5)
  %11 = getelementptr inbounds nuw %struct.TuplesortInstrumentation, ptr %5, i32 0, i32 1
  %12 = load i32, ptr %11, align 4
  switch i32 %12, label %51 [
    i32 0, label %13
    i32 1, label %32
  ]

13:                                               ; preds = %2
  %14 = getelementptr inbounds nuw %struct.TuplesortInstrumentation, ptr %5, i32 0, i32 2
  %15 = load i64, ptr %14, align 8
  %16 = load ptr, ptr %3, align 8
  %17 = getelementptr inbounds nuw %struct.IncrementalSortGroupInfo, ptr %16, i32 0, i32 2
  %18 = load i64, ptr %17, align 8
  %19 = add i64 %18, %15
  store i64 %19, ptr %17, align 8
  %20 = getelementptr inbounds nuw %struct.TuplesortInstrumentation, ptr %5, i32 0, i32 2
  %21 = load i64, ptr %20, align 8
  %22 = load ptr, ptr %3, align 8
  %23 = getelementptr inbounds nuw %struct.IncrementalSortGroupInfo, ptr %22, i32 0, i32 1
  %24 = load i64, ptr %23, align 8
  %25 = icmp sgt i64 %21, %24
  br i1 %25, label %26, label %31

26:                                               ; preds = %13
  %27 = getelementptr inbounds nuw %struct.TuplesortInstrumentation, ptr %5, i32 0, i32 2
  %28 = load i64, ptr %27, align 8
  %29 = load ptr, ptr %3, align 8
  %30 = getelementptr inbounds nuw %struct.IncrementalSortGroupInfo, ptr %29, i32 0, i32 1
  store i64 %28, ptr %30, align 8
  br label %31

31:                                               ; preds = %26, %13
  br label %51

32:                                               ; preds = %2
  %33 = getelementptr inbounds nuw %struct.TuplesortInstrumentation, ptr %5, i32 0, i32 2
  %34 = load i64, ptr %33, align 8
  %35 = load ptr, ptr %3, align 8
  %36 = getelementptr inbounds nuw %struct.IncrementalSortGroupInfo, ptr %35, i32 0, i32 4
  %37 = load i64, ptr %36, align 8
  %38 = add i64 %37, %34
  store i64 %38, ptr %36, align 8
  %39 = getelementptr inbounds nuw %struct.TuplesortInstrumentation, ptr %5, i32 0, i32 2
  %40 = load i64, ptr %39, align 8
  %41 = load ptr, ptr %3, align 8
  %42 = getelementptr inbounds nuw %struct.IncrementalSortGroupInfo, ptr %41, i32 0, i32 3
  %43 = load i64, ptr %42, align 8
  %44 = icmp sgt i64 %40, %43
  br i1 %44, label %45, label %50

45:                                               ; preds = %32
  %46 = getelementptr inbounds nuw %struct.TuplesortInstrumentation, ptr %5, i32 0, i32 2
  %47 = load i64, ptr %46, align 8
  %48 = load ptr, ptr %3, align 8
  %49 = getelementptr inbounds nuw %struct.IncrementalSortGroupInfo, ptr %48, i32 0, i32 3
  store i64 %47, ptr %49, align 8
  br label %50

50:                                               ; preds = %45, %32
  br label %51

51:                                               ; preds = %2, %50, %31
  %52 = getelementptr inbounds nuw %struct.TuplesortInstrumentation, ptr %5, i32 0, i32 0
  %53 = load i32, ptr %52, align 8
  %54 = load ptr, ptr %3, align 8
  %55 = getelementptr inbounds nuw %struct.IncrementalSortGroupInfo, ptr %54, i32 0, i32 5
  %56 = load i32, ptr %55, align 8
  %57 = or i32 %56, %53
  store i32 %57, ptr %55, align 8
  call void @llvm.lifetime.end.p0(i64 16, ptr %5) #8
  ret void
}