; Function Attrs: nounwind uwtable
define internal fastcc void @instrumentSortedGroup(ptr noundef captures(none) %0, ptr noundef %1) unnamed_addr #0 {
  %3 = alloca %struct.TuplesortInstrumentation, align 8
  call void @llvm.lifetime.start.p0(i64 16, ptr nonnull %3) #8
  %4 = load i64, ptr %0, align 8
  %5 = add i64 %4, 1
  store i64 %5, ptr %0, align 8
  call void @tuplesort_get_stats(ptr noundef %1, ptr noundef nonnull %3) #8
  %6 = getelementptr inbounds nuw i8, ptr %3, i64 4
  %7 = load i32, ptr %6, align 4
  switch i32 %7, label %28 [
    i32 0, label %8
    i32 1, label %18
  ]

8:                                                ; preds = %2
  %9 = getelementptr inbounds nuw i8, ptr %3, i64 8
  %10 = load i64, ptr %9, align 8
  %11 = getelementptr inbounds nuw i8, ptr %0, i64 16
  %12 = load i64, ptr %11, align 8
  %13 = add i64 %12, %10
  store i64 %13, ptr %11, align 8
  %14 = getelementptr inbounds nuw i8, ptr %0, i64 8
  %15 = load i64, ptr %14, align 8
  %16 = icmp sgt i64 %10, %15
  br i1 %16, label %17, label %28

17:                                               ; preds = %8
  store i64 %10, ptr %14, align 8
  br label %28

18:                                               ; preds = %2
  %19 = getelementptr inbounds nuw i8, ptr %3, i64 8
  %20 = load i64, ptr %19, align 8
  %21 = getelementptr inbounds nuw i8, ptr %0, i64 32
  %22 = load i64, ptr %21, align 8
  %23 = add i64 %22, %20
  store i64 %23, ptr %21, align 8
  %24 = getelementptr inbounds nuw i8, ptr %0, i64 24
  %25 = load i64, ptr %24, align 8
  %26 = icmp sgt i64 %20, %25
  br i1 %26, label %27, label %28

27:                                               ; preds = %18
  store i64 %20, ptr %24, align 8
  br label %28

28:                                               ; preds = %18, %27, %8, %17, %2
  %29 = load i32, ptr %3, align 8
  %30 = getelementptr inbounds nuw i8, ptr %0, i64 40
  %31 = load i32, ptr %30, align 8
  %32 = or i32 %31, %29
  store i32 %32, ptr %30, align 8
  call void @llvm.lifetime.end.p0(i64 16, ptr nonnull %3) #8
  ret void
}